target datalayout = "e-m:e-p270:32:32-p271:32:32-p272:64:64-i64:64-i128:128-f80:128-n8:16:32:64-S128"
target triple = "x86_64-pc-linux-gnu"

%struct.Proto = type { ptr, i8, i8, i8, i8, i8, i32, i32, i32, i32, i32, i32, i32, i32, i32, ptr, ptr, ptr, ptr, ptr, ptr, ptr, ptr, ptr }
%struct.AbsLineInfo = type { i32, i32 }

; Function Attrs: nounwind uwtable
define internal i32 @getbaseline(ptr noundef %0, i32 noundef %1, ptr noundef %2) #0 {
  %4 = alloca i32, align 4
  %5 = alloca ptr, align 8
  %6 = alloca i32, align 4
  %7 = alloca ptr, align 8
  %8 = alloca i32, align 4
  store ptr %0, ptr %5, align 8, !tbaa !4
  store i32 %1, ptr %6, align 4, !tbaa !9
  store ptr %2, ptr %7, align 8, !tbaa !23
  %9 = load ptr, ptr %5, align 8, !tbaa !4
  %10 = getelementptr inbounds nuw %struct.Proto, ptr %9, i32 0, i32 12
  %11 = load i32, ptr %10, align 8, !tbaa !24
  %12 = icmp eq i32 %11, 0
  br i1 %12, label %22, label %13

13:                                               ; preds = %3
  %14 = load i32, ptr %6, align 4, !tbaa !9
  %15 = load ptr, ptr %5, align 8, !tbaa !4
  %16 = getelementptr inbounds nuw %struct.Proto, ptr %15, i32 0, i32 20
  %17 = load ptr, ptr %16, align 8, !tbaa !25
  %18 = getelementptr inbounds %struct.AbsLineInfo, ptr %17, i64 0
  %19 = getelementptr inbounds nuw %struct.AbsLineInfo, ptr %18, i32 0, i32 0
  %20 = load i32, ptr %19, align 4, !tbaa !26
  %21 = icmp slt i32 %14, %20
  br i1 %21, label %22, label %27

22:                                               ; preds = %13, %3
  %23 = load ptr, ptr %7, align 8, !tbaa !23
  store i32 -1, ptr %23, align 4, !tbaa !9
  %24 = load ptr, ptr %5, align 8, !tbaa !4
  %25 = getelementptr inbounds nuw %struct.Proto, ptr %24, i32 0, i32 13
  %26 = load i32, ptr %25, align 4, !tbaa !28
  store i32 %26, ptr %4, align 4
  br label %73

27:                                               ; preds = %13
  call void @llvm.lifetime.start.p0(i64 4, ptr %8) #8
  %28 = load i32, ptr %6, align 4, !tbaa !9
  %29 = sdiv i32 %28, 128
  %30 = sub nsw i32 %29, 1
  store i32 %30, ptr %8, align 4, !tbaa !9
  br label %31

31:                                               ; preds = %52, %27
  %32 = load i32, ptr %8, align 4, !tbaa !9
  %33 = add nsw i32 %32, 1
  %34 = load ptr, ptr %5, align 8, !tbaa !4
  %35 = getelementptr inbounds nuw %struct.Proto, ptr %34, i32 0, i32 12
  %36 = load i32, ptr %35, align 8, !tbaa !24
  %37 = icmp slt i32 %33, %36
  br i1 %37, label %38, label %50

38:                                               ; preds = %31
  %39 = load i32, ptr %6, align 4, !tbaa !9
  %40 = load ptr, ptr %5, align 8, !tbaa !4
  %41 = getelementptr inbounds nuw %struct.Proto, ptr %40, i32 0, i32 20
  %42 = load ptr, ptr %41, align 8, !tbaa !25
  %43 = load i32, ptr %8, align 4, !tbaa !9
  %44 = add nsw i32 %43, 1
  %45 = sext i32 %44 to i64
  %46 = getelementptr inbounds %struct.AbsLineInfo, ptr %42, i64 %45
  %47 = getelementptr inbounds nuw %struct.AbsLineInfo, ptr %46, i32 0, i32 0
  %48 = load i32, ptr %47, align 4, !tbaa !26
  %49 = icmp sge i32 %39, %48
  br label %50

50:                                               ; preds = %38, %31
  %51 = phi i1 [ false, %31 ], [ %49, %38 ]
  br i1 %51, label %52, label %55

52:                                               ; preds = %50
  %53 = load i32, ptr %8, align 4, !tbaa !9
  %54 = add nsw i32 %53, 1
  store i32 %54, ptr %8, align 4, !tbaa !9
  br label %31

55:                                               ; preds = %50
  %56 = load ptr, ptr %5, align 8, !tbaa !4
  %57 = getelementptr inbounds nuw %struct.Proto, ptr %56, i32 0, i32 20
  %58 = load ptr, ptr %57, align 8, !tbaa !25
  %59 = load i32, ptr %8, align 4, !tbaa !9
  %60 = sext i32 %59 to i64
  %61 = getelementptr inbounds %struct.AbsLineInfo, ptr %58, i64 %60
  %62 = getelementptr inbounds nuw %struct.AbsLineInfo, ptr %61, i32 0, i32 0
  %63 = load i32, ptr %62, align 4, !tbaa !26
  %64 = load ptr, ptr %7, align 8, !tbaa !23
  store i32 %63, ptr %64, align 4, !tbaa !9
  %65 = load ptr, ptr %5, align 8, !tbaa !4
  %66 = getelementptr inbounds nuw %struct.Proto, ptr %65, i32 0, i32 20
  %67 = load ptr, ptr %66, align 8, !tbaa !25
  %68 = load i32, ptr %8, align 4, !tbaa !9
  %69 = sext i32 %68 to i64
  %70 = getelementptr inbounds %struct.AbsLineInfo, ptr %67, i64 %69
  %71 = getelementptr inbounds nuw %struct.AbsLineInfo, ptr %70, i32 0, i32 1
  %72 = load i32, ptr %71, align 4, !tbaa !29
  store i32 %72, ptr %4, align 4
  call void @llvm.lifetime.end.p0(i64 4, ptr %8) #8
  br label %73

73:                                               ; preds = %55, %22
  %74 = load i32, ptr %4, align 4
  ret i32 %74
}

; Function Attrs: nounwind uwtable
define hidden i32 @luaG_getfuncline(ptr noundef %0, i32 noundef %1) #0 {
  %3 = alloca i32, align 4
  %4 = alloca ptr, align 8
  %5 = alloca i32, align 4
  %6 = alloca i32, align 4
  %7 = alloca i32, align 4
  store ptr %0, ptr %4, align 8, !tbaa !4
  store i32 %1, ptr %5, align 4, !tbaa !9
  %8 = load ptr, ptr %4, align 8, !tbaa !4
  %9 = getelementptr inbounds nuw %struct.Proto, ptr %8, i32 0, i32 19
  %10 = load ptr, ptr %9, align 8, !tbaa !11
  %11 = icmp eq ptr %10, null
  br i1 %11, label %12, label %13

12:                                               ; preds = %2
  store i32 -1, ptr %3, align 4
  br label %35

13:                                               ; preds = %2
  call void @llvm.lifetime.start.p0(i64 4, ptr %6) #8
  call void @llvm.lifetime.start.p0(i64 4, ptr %7) #8
  %14 = load ptr, ptr %4, align 8, !tbaa !4
  %15 = load i32, ptr %5, align 4, !tbaa !9
  %16 = call i32 @getbaseline(ptr noundef %14, i32 noundef %15, ptr noundef %6)
  store i32 %16, ptr %7, align 4, !tbaa !9
  br label %17

17:                                               ; preds = %22, %13
  %18 = load i32, ptr %6, align 4, !tbaa !9
  %19 = add nsw i32 %18, 1
  store i32 %19, ptr %6, align 4, !tbaa !9
  %20 = load i32, ptr %5, align 4, !tbaa !9
  %21 = icmp slt i32 %18, %20
  br i1 %21, label %22, label %33

22:                                               ; preds = %17
  %23 = load ptr, ptr %4, align 8, !tbaa !4
  %24 = getelementptr inbounds nuw %struct.Proto, ptr %23, i32 0, i32 19
  %25 = load ptr, ptr %24, align 8, !tbaa !11
  %26 = load i32, ptr %6, align 4, !tbaa !9
  %27 = sext i32 %26 to i64
  %28 = getelementptr inbounds i8, ptr %25, i64 %27
  %29 = load i8, ptr %28, align 1, !tbaa !22
  %30 = sext i8 %29 to i32
  %31 = load i32, ptr %7, align 4, !tbaa !9
  %32 = add nsw i32 %31, %30
  store i32 %32, ptr %7, align 4, !tbaa !9
  br label %17

33:                                               ; preds = %17
  %34 = load i32, ptr %7, align 4, !tbaa !9
  store i32 %34, ptr %3, align 4
  call void @llvm.lifetime.end.p0(i64 4, ptr %7) #8
  call void @llvm.lifetime.end.p0(i64 4, ptr %6) #8
  br label %35

35:                                               ; preds = %33, %12
  %36 = load i32, ptr %3, align 4
  ret i32 %36
}