; Function Attrs: nofree norecurse nosync nounwind memory(read, inaccessiblemem: none) uwtable
define hidden i32 @luaG_getfuncline(ptr noundef readonly captures(none) %0, i32 noundef %1) local_unnamed_addr #0 {
  %3 = getelementptr inbounds nuw i8, ptr %0, i64 88
  %4 = load ptr, ptr %3, align 8, !tbaa !4
  %5 = icmp eq ptr %4, null
  br i1 %5, label %.loopexit, label %6

6:                                                ; preds = %2
  %7 = getelementptr inbounds nuw i8, ptr %0, i64 40
  %8 = load i32, ptr %7, align 8, !tbaa !19
  %9 = icmp eq i32 %8, 0
  br i1 %9, label %15, label %10

10:                                               ; preds = %6
  %11 = getelementptr inbounds nuw i8, ptr %0, i64 96
  %12 = load ptr, ptr %11, align 8, !tbaa !20
  %13 = load i32, ptr %12, align 4, !tbaa !21
  %14 = icmp slt i32 %1, %13
  br i1 %14, label %15, label %17

15:                                               ; preds = %10, %6
  %16 = getelementptr inbounds nuw i8, ptr %0, i64 44
  br label %getbaseline.exit

17:                                               ; preds = %10
  %18 = sdiv i32 %1, 128
  %narrow.i = add nsw i32 %18, -1
  %19 = sext i32 %narrow.i to i64
  %smax.i = tail call i32 @llvm.smax.i32(i32 %8, i32 %18)
  %20 = add nsw i32 %smax.i, -1
  %wide.trip.count.i = sext i32 %20 to i64
  br label %21

21:                                               ; preds = %22, %17
  %indvars.iv.i = phi i64 [ %indvars.iv.next.i, %22 ], [ %19, %17 ]
  %exitcond.not.i = icmp eq i64 %indvars.iv.i, %wide.trip.count.i
  br i1 %exitcond.not.i, label %.critedge.i, label %22

22:                                               ; preds = %21
  %indvars.iv.next.i = add nsw i64 %indvars.iv.i, 1
  %23 = getelementptr inbounds %struct.AbsLineInfo, ptr %12, i64 %indvars.iv.next.i
  %24 = load i32, ptr %23, align 4, !tbaa !21
  %.not.i = icmp slt i32 %1, %24
  br i1 %.not.i, label %..critedge_crit_edge.i, label %21

..critedge_crit_edge.i:                           ; preds = %22
  %sext.i = shl i64 %indvars.iv.i, 32
  %.pre.i = ashr exact i64 %sext.i, 32
  br label %.critedge.i

.critedge.i:                                      ; preds = %21, %..critedge_crit_edge.i
  %.pre-phi.i = phi i64 [ %.pre.i, %..critedge_crit_edge.i ], [ %wide.trip.count.i, %21 ]
  %25 = getelementptr inbounds %struct.AbsLineInfo, ptr %12, i64 %.pre-phi.i
  %26 = load i32, ptr %25, align 4, !tbaa !21
  %27 = getelementptr inbounds %struct.AbsLineInfo, ptr %12, i64 %.pre-phi.i, i32 1
  br label %getbaseline.exit

getbaseline.exit:                                 ; preds = %15, %.critedge.i
  %.1 = phi i32 [ -1, %15 ], [ %26, %.critedge.i ]
  %.017.in.i = phi ptr [ %16, %15 ], [ %27, %.critedge.i ]
  %.017.i = load i32, ptr %.017.in.i, align 4, !tbaa !23
  %28 = icmp slt i32 %.1, %1
  br i1 %28, label %.lr.ph.preheader, label %.loopexit

.lr.ph.preheader:                                 ; preds = %getbaseline.exit
  %29 = sext i32 %.1 to i64
  %wide.trip.count = sext i32 %1 to i64
  br label %.lr.ph

.lr.ph:                                           ; preds = %.lr.ph.preheader, %.lr.ph
  %indvars.iv = phi i64 [ %29, %.lr.ph.preheader ], [ %indvars.iv.next, %.lr.ph ]
  %.011 = phi i32 [ %.017.i, %.lr.ph.preheader ], [ %33, %.lr.ph ]
  %indvars.iv.next = add nsw i64 %indvars.iv, 1
  %30 = getelementptr inbounds i8, ptr %4, i64 %indvars.iv.next
  %31 = load i8, ptr %30, align 1, !tbaa !24
  %32 = sext i8 %31 to i32
  %33 = add nsw i32 %.011, %32
  %exitcond.not = icmp eq i64 %indvars.iv.next, %wide.trip.count
  br i1 %exitcond.not, label %.loopexit, label %.lr.ph

.loopexit:                                        ; preds = %.lr.ph, %getbaseline.exit, %2
  %.07 = phi i32 [ -1, %2 ], [ %.017.i, %getbaseline.exit ], [ %33, %.lr.ph ]
  ret i32 %.07
}